; Function Attrs: inlinehint nounwind uwtable
define internal fastcc i64 @heap_getattr(ptr noundef nonnull %0, ptr noundef %1, ptr noundef nonnull %2) unnamed_addr #6 {
  %4 = getelementptr inbounds nuw i8, ptr %0, i64 16
  %5 = load ptr, ptr %4, align 8
  %6 = getelementptr inbounds nuw i8, ptr %5, i64 18
  %7 = load i16, ptr %6, align 2
  %8 = and i16 %7, 2047
  %9 = icmp samesign ult i16 %8, 21
  br i1 %9, label %10, label %12

10:                                               ; preds = %3
  %11 = tail call i64 @getmissingattr(ptr noundef %1, i32 noundef 21, ptr noundef nonnull %2) #12
  br label %fastgetattr.exit

12:                                               ; preds = %3
  store i8 0, ptr %2, align 1
  %.val.i = load ptr, ptr %4, align 8
  %13 = getelementptr i8, ptr %.val.i, i64 20
  %.val.val.i = load i16, ptr %13, align 4
  %14 = and i16 %.val.val.i, 1
  %.not.i.i = icmp eq i16 %14, 0
  br i1 %.not.i.i, label %15, label %51

15:                                               ; preds = %12
  %16 = getelementptr inbounds nuw i8, ptr %1, i64 344
  %17 = load i32, ptr %16, align 4
  %18 = icmp sgt i32 %17, -1
  br i1 %18, label %19, label %49

19:                                               ; preds = %15
  %20 = getelementptr inbounds nuw i8, ptr %.val.i, i64 22
  %21 = load i8, ptr %20, align 2
  %22 = zext i8 %21 to i64
  %23 = getelementptr inbounds nuw i8, ptr %.val.i, i64 %22
  %24 = zext nneg i32 %17 to i64
  %25 = getelementptr inbounds nuw i8, ptr %23, i64 %24
  %26 = getelementptr inbounds nuw i8, ptr %1, i64 350
  %27 = load i8, ptr %26, align 2, !range !16, !noundef !17
  %28 = trunc nuw i8 %27 to i1
  %29 = getelementptr inbounds nuw i8, ptr %1, i64 348
  %30 = load i16, ptr %29, align 4
  br i1 %28, label %31, label %47

31:                                               ; preds = %19
  switch i16 %30, label %43 [
    i16 1, label %32
    i16 2, label %35
    i16 4, label %38
    i16 8, label %41
  ]

32:                                               ; preds = %31
  %33 = load i8, ptr %25, align 1
  %34 = sext i8 %33 to i64
  br label %fastgetattr.exit

35:                                               ; preds = %31
  %36 = load i16, ptr %25, align 2
  %37 = sext i16 %36 to i64
  br label %fastgetattr.exit

38:                                               ; preds = %31
  %39 = load i32, ptr %25, align 4
  %40 = sext i32 %39 to i64
  br label %fastgetattr.exit

41:                                               ; preds = %31
  %42 = load i64, ptr %25, align 8
  br label %fastgetattr.exit

43:                                               ; preds = %31
  %44 = sext i16 %30 to i32
  %45 = tail call zeroext i1 @errstart_cold(i32 noundef 21, ptr noundef null) #14
  tail call void @llvm.assume(i1 %45)
  %46 = tail call i32 (ptr, ...) @errmsg_internal(ptr noundef nonnull @.str.25, i32 noundef range(i32 -32768, 32768) %44) #12
  tail call void @errfinish(ptr noundef nonnull @.str.26, i32 noundef 70, ptr noundef nonnull @__func__.fetch_att) #12
  unreachable

47:                                               ; preds = %19
  %48 = ptrtoint ptr %25 to i64
  br label %fastgetattr.exit

49:                                               ; preds = %15
  %50 = tail call i64 @nocachegetattr(ptr noundef nonnull %0, i32 noundef 21, ptr noundef nonnull %1) #12
  br label %fastgetattr.exit

51:                                               ; preds = %12
  %52 = getelementptr i8, ptr %.val.i, i64 25
  %.val20.i = load i8, ptr %52, align 1
  %53 = and i8 %.val20.i, 16
  %.not.i21.i = icmp eq i8 %53, 0
  br i1 %.not.i21.i, label %54, label %55

54:                                               ; preds = %51
  store i8 1, ptr %2, align 1
  br label %fastgetattr.exit

55:                                               ; preds = %51
  %56 = tail call i64 @nocachegetattr(ptr noundef nonnull %0, i32 noundef 21, ptr noundef %1) #12
  br label %fastgetattr.exit

fastgetattr.exit:                                 ; preds = %55, %54, %49, %47, %41, %38, %35, %32, %10
  %.0 = phi i64 [ %11, %10 ], [ 0, %54 ], [ %56, %55 ], [ %50, %49 ], [ %42, %41 ], [ %40, %38 ], [ %37, %35 ], [ %34, %32 ], [ %48, %47 ]
  ret i64 %.0
}